target datalayout = "e-m:e-p270:32:32-p271:32:32-p272:64:64-i64:64-i128:128-f80:128-n8:16:32:64-S128"
target triple = "x86_64-pc-linux-gnu"

%struct.AVFormatContext = type { ptr, ptr, ptr, ptr, ptr, i32, i32, ptr, i32, ptr, i32, ptr, ptr, i64, i64, i64, i32, i32, i32, i64, i64, ptr, i32, i32, ptr, i32, i32, i32, i32, ptr, i64, i32, i32, %struct.AVIOInterruptCB, i32, i32, i32, i32, i64, i32, i32, i32, i32, i32, i32, i32, i32, i32, i32, i32, i32, i64, i32, i32, i32, i32, i32, ptr, ptr, ptr, ptr, i32, ptr, ptr, ptr, ptr, i32, ptr, ptr, i64, ptr, ptr, ptr, i64 }
%struct.AVIOInterruptCB = type { ptr, ptr }
%struct.AVStream = type { ptr, i32, i32, ptr, ptr, %struct.AVRational, i64, i64, i64, i32, i32, %struct.AVRational, ptr, %struct.AVRational, %struct.AVPacket, i32, %struct.AVRational, i32 }
%struct.AVPacket = type { ptr, i64, i64, ptr, i32, i32, i32, ptr, i32, i64, i64, ptr, ptr, %struct.AVRational }
%struct.AVRational = type { i32, i32 }
%struct.AVCodecParameters = type { i32, i32, i32, ptr, i32, ptr, i32, i32, i64, i32, i32, i32, i32, i32, i32, %struct.AVRational, %struct.AVRational, i32, i32, i32, i32, i32, i32, i32, %struct.AVChannelLayout, i32, i32, i32, i32, i32, i32 }
%struct.AVChannelLayout = type { i32, i32, %union.anon, ptr }
%union.anon = type { i64 }

@.str.40 = private unnamed_addr constant [11 x i8] c"image/jpeg\00", align 1
@.str.41 = private unnamed_addr constant [6 x i8] c"title\00", align 1

; Function Attrs: alwaysinline nounwind uwtable
define internal i64 @avio_tell(ptr noundef %0) #1 {
  %2 = alloca ptr, align 8
  store ptr %0, ptr %2, align 8, !tbaa !41
  %3 = load ptr, ptr %2, align 8, !tbaa !41
  %4 = call i64 @avio_seek(ptr noundef %3, i64 noundef 0, i32 noundef 1)
  ret i64 %4
}

; Function Attrs: nounwind uwtable
define internal void @get_attachment(ptr noundef %0, ptr noundef %1, i32 noundef %2) #0 {
  %4 = alloca ptr, align 8
  %5 = alloca ptr, align 8
  %6 = alloca i32, align 4
  %7 = alloca [1024 x i8], align 16
  %8 = alloca [1024 x i8], align 16
  %9 = alloca i32, align 4
  %10 = alloca ptr, align 8
  %11 = alloca i64, align 8
  store ptr %0, ptr %4, align 8, !tbaa !13
  store ptr %1, ptr %5, align 8, !tbaa !41
  store i32 %2, ptr %6, align 4, !tbaa !38
  call void @llvm.lifetime.start.p0(i64 1024, ptr %7) #8
  call void @llvm.lifetime.start.p0(i64 1024, ptr %8) #8
  call void @llvm.lifetime.start.p0(i64 4, ptr %9) #8
  call void @llvm.lifetime.start.p0(i64 8, ptr %10) #8
  call void @llvm.lifetime.start.p0(i64 8, ptr %11) #8
  %12 = load ptr, ptr %5, align 8, !tbaa !41
  %13 = call i64 @avio_tell(ptr noundef %12)
  store i64 %13, ptr %11, align 8, !tbaa !39
  %14 = load ptr, ptr %5, align 8, !tbaa !41
  %15 = getelementptr inbounds [1024 x i8], ptr %7, i64 0, i64 0
  %16 = call i32 @avio_get_str16le(ptr noundef %14, i32 noundef 2147483647, ptr noundef %15, i32 noundef 1024)
  %17 = getelementptr inbounds [1024 x i8], ptr %7, i64 0, i64 0
  %18 = call i32 @strcmp(ptr noundef %17, ptr noundef @.str.40) #9
  %19 = icmp ne i32 %18, 0
  br i1 %19, label %20, label %21

20:                                               ; preds = %3
  br label %60

21:                                               ; preds = %3
  %22 = load ptr, ptr %5, align 8, !tbaa !41
  %23 = call i32 @avio_r8(ptr noundef %22)
  %24 = load ptr, ptr %5, align 8, !tbaa !41
  %25 = getelementptr inbounds [1024 x i8], ptr %8, i64 0, i64 0
  %26 = call i32 @avio_get_str16le(ptr noundef %24, i32 noundef 2147483647, ptr noundef %25, i32 noundef 1024)
  %27 = load ptr, ptr %5, align 8, !tbaa !41
  %28 = call i32 @avio_rl32(ptr noundef %27)
  store i32 %28, ptr %9, align 4, !tbaa !38
  %29 = load i32, ptr %9, align 4, !tbaa !38
  %30 = icmp ne i32 %29, 0
  br i1 %30, label %32, label %31

31:                                               ; preds = %21
  br label %60

32:                                               ; preds = %21
  %33 = load ptr, ptr %4, align 8, !tbaa !13
  %34 = load ptr, ptr %5, align 8, !tbaa !41
  %35 = load i32, ptr %9, align 4, !tbaa !38
  %36 = call i32 @ff_add_attached_pic(ptr noundef %33, ptr noundef null, ptr noundef %34, ptr noundef null, i32 noundef %35)
  %37 = icmp slt i32 %36, 0
  br i1 %37, label %38, label %39

38:                                               ; preds = %32
  br label %60

39:                                               ; preds = %32
  %40 = load ptr, ptr %4, align 8, !tbaa !13
  %41 = getelementptr inbounds nuw %struct.AVFormatContext, ptr %40, i32 0, i32 7
  %42 = load ptr, ptr %41, align 8, !tbaa !44
  %43 = load ptr, ptr %4, align 8, !tbaa !13
  %44 = getelementptr inbounds nuw %struct.AVFormatContext, ptr %43, i32 0, i32 6
  %45 = load i32, ptr %44, align 4, !tbaa !43
  %46 = sub i32 %45, 1
  %47 = zext i32 %46 to i64
  %48 = getelementptr inbounds nuw ptr, ptr %42, i64 %47
  %49 = load ptr, ptr %48, align 8, !tbaa !45
  store ptr %49, ptr %10, align 8, !tbaa !45
  %50 = load ptr, ptr %10, align 8, !tbaa !45
  %51 = getelementptr inbounds nuw %struct.AVStream, ptr %50, i32 0, i32 12
  %52 = getelementptr inbounds [1024 x i8], ptr %8, i64 0, i64 0
  %53 = call i32 @av_dict_set(ptr noundef %51, ptr noundef @.str.41, ptr noundef %52, i32 noundef 0)
  %54 = load ptr, ptr %10, align 8, !tbaa !45
  %55 = getelementptr inbounds nuw %struct.AVStream, ptr %54, i32 0, i32 3
  %56 = load ptr, ptr %55, align 8, !tbaa !97
  %57 = getelementptr inbounds nuw %struct.AVCodecParameters, ptr %56, i32 0, i32 1
  store i32 7, ptr %57, align 4, !tbaa !101
  %58 = load ptr, ptr %10, align 8, !tbaa !45
  %59 = getelementptr inbounds nuw %struct.AVStream, ptr %58, i32 0, i32 2
  store i32 -1, ptr %59, align 4, !tbaa !104
  br label %60

60:                                               ; preds = %39, %38, %31, %20
  %61 = load ptr, ptr %5, align 8, !tbaa !41
  %62 = load i64, ptr %11, align 8, !tbaa !39
  %63 = load i32, ptr %6, align 4, !tbaa !38
  %64 = sext i32 %63 to i64
  %65 = add nsw i64 %62, %64
  %66 = call i64 @avio_seek(ptr noundef %61, i64 noundef %65, i32 noundef 0)
  call void @llvm.lifetime.end.p0(i64 8, ptr %11) #8
  call void @llvm.lifetime.end.p0(i64 8, ptr %10) #8
  call void @llvm.lifetime.end.p0(i64 4, ptr %9) #8
  call void @llvm.lifetime.end.p0(i64 1024, ptr %8) #8
  call void @llvm.lifetime.end.p0(i64 1024, ptr %7) #8
  ret void
}