; Function Attrs: nounwind uwtable
define internal fastcc void @get_attachment(ptr noundef %0, ptr noundef nonnull %1, i32 noundef range(i32 1, -2147483648) %2) unnamed_addr #1 {
  %4 = alloca [1024 x i8], align 16
  %5 = alloca [1024 x i8], align 16
  call void @llvm.lifetime.start.p0(i64 1024, ptr nonnull %4) #11
  call void @llvm.lifetime.start.p0(i64 1024, ptr nonnull %5) #11
  %6 = tail call i64 @avio_seek(ptr noundef nonnull %1, i64 noundef 0, i32 noundef 1) #11
  %7 = call i32 @avio_get_str16le(ptr noundef nonnull %1, i32 noundef 2147483647, ptr noundef nonnull %4, i32 noundef 1024) #11
  %bcmp = call i32 @bcmp(ptr noundef nonnull dereferenceable(11) %4, ptr noundef nonnull dereferenceable(11) @.str.40, i64 11)
  %.not = icmp eq i32 %bcmp, 0
  br i1 %.not, label %8, label %30

8:                                                ; preds = %3
  %9 = call i32 @avio_r8(ptr noundef nonnull %1) #11
  %10 = call i32 @avio_get_str16le(ptr noundef nonnull %1, i32 noundef 2147483647, ptr noundef nonnull %5, i32 noundef 1024) #11
  %11 = call i32 @avio_rl32(ptr noundef nonnull %1) #11
  %.not16 = icmp eq i32 %11, 0
  br i1 %.not16, label %30, label %12

12:                                               ; preds = %8
  %13 = call i32 @ff_add_attached_pic(ptr noundef %0, ptr noundef null, ptr noundef nonnull %1, ptr noundef null, i32 noundef %11) #11
  %14 = icmp slt i32 %13, 0
  br i1 %14, label %30, label %15

15:                                               ; preds = %12
  %16 = getelementptr inbounds nuw i8, ptr %0, i64 48
  %17 = load ptr, ptr %16, align 8, !tbaa !40
  %18 = getelementptr inbounds nuw i8, ptr %0, i64 44
  %19 = load i32, ptr %18, align 4, !tbaa !39
  %20 = add i32 %19, -1
  %21 = zext i32 %20 to i64
  %22 = getelementptr inbounds nuw ptr, ptr %17, i64 %21
  %23 = load ptr, ptr %22, align 8, !tbaa !41
  %24 = getelementptr inbounds nuw i8, ptr %23, i64 80
  %25 = call i32 @av_dict_set(ptr noundef nonnull %24, ptr noundef nonnull @.str.41, ptr noundef nonnull %5, i32 noundef 0) #11
  %26 = getelementptr inbounds nuw i8, ptr %23, i64 16
  %27 = load ptr, ptr %26, align 8, !tbaa !80
  %28 = getelementptr inbounds nuw i8, ptr %27, i64 4
  store i32 7, ptr %28, align 4, !tbaa !99
  %29 = getelementptr inbounds nuw i8, ptr %23, i64 12
  store i32 -1, ptr %29, align 4, !tbaa !85
  br label %30

30:                                               ; preds = %12, %8, %3, %15
  %31 = zext nneg i32 %2 to i64
  %32 = add nsw i64 %6, %31
  %33 = call i64 @avio_seek(ptr noundef nonnull %1, i64 noundef %32, i32 noundef 0) #11
  call void @llvm.lifetime.end.p0(i64 1024, ptr nonnull %5) #11
  call void @llvm.lifetime.end.p0(i64 1024, ptr nonnull %4) #11
  ret void
}